target datalayout = "e-m:e-p270:32:32-p271:32:32-p272:64:64-i64:64-i128:128-f80:128-n8:16:32:64-S128"
target triple = "x86_64-pc-linux-gnu"

@.str.2 = private unnamed_addr constant [101 x i8] c"generated/home/dtcxzyw/WorkSpace/Projects/compilers/llvm-opt-benchmark/bench/hdf5/hdf5/src/H5VLint.c\00", align 1
@H5E_VOL_g = external global i64, align 8
@H5E_CANTREGISTER_g = external global i64, align 8
@__func__.H5VL_register = private unnamed_addr constant [14 x i8] c"H5VL_register\00", align 1
@H5E_CANTCREATE_g = external global i64, align 8
@.str.40 = private unnamed_addr constant [24 x i8] c"can't create VOL object\00", align 1
@.str.41 = private unnamed_addr constant [26 x i8] c"unable to register handle\00", align 1

; Function Attrs: nounwind uwtable
define i64 @H5VL_register(i32 noundef %0, ptr noundef %1, ptr noundef %2, i1 noundef zeroext %3) #0 {
  %5 = alloca i32, align 4
  %6 = alloca ptr, align 8
  %7 = alloca ptr, align 8
  %8 = alloca i8, align 1
  %9 = alloca ptr, align 8
  %10 = alloca i64, align 8
  %11 = alloca i8, align 1
  store i32 %0, ptr %5, align 4
  store ptr %1, ptr %6, align 8
  store ptr %2, ptr %7, align 8
  %12 = zext i1 %3 to i8
  store i8 %12, ptr %8, align 1
  store ptr null, ptr %9, align 8
  store i64 -1, ptr %10, align 8
  store i8 0, ptr %11, align 1
  %13 = load i32, ptr %5, align 4
  %14 = load ptr, ptr %6, align 8
  %15 = load ptr, ptr %7, align 8
  %16 = call ptr @H5VL__new_vol_obj(i32 noundef %13, ptr noundef %14, ptr noundef %15, i1 noundef zeroext false)
  store ptr %16, ptr %9, align 8
  %17 = icmp eq ptr null, %16
  br i1 %17, label %18, label %33

18:                                               ; preds = %4
  br label %19

19:                                               ; preds = %18
  br label %20

20:                                               ; preds = %19
  br label %21

21:                                               ; preds = %20
  %22 = load i64, ptr @H5E_VOL_g, align 8
  %23 = load i64, ptr @H5E_CANTCREATE_g, align 8
  %24 = call i32 (ptr, ptr, i32, i64, i64, ptr, ...) @H5E_printf_stack(ptr noundef @.str.2, ptr noundef @__func__.H5VL_register, i32 noundef 692, i64 noundef %22, i64 noundef %23, ptr noundef @.str.40)
  br label %25

25:                                               ; preds = %21
  store i8 1, ptr %11, align 1
  %26 = load i8, ptr %11, align 1
  %27 = trunc i8 %26 to i1
  %28 = zext i1 %27 to i8
  store i8 %28, ptr %11, align 1
  br label %29

29:                                               ; preds = %25
  br label %30

30:                                               ; preds = %29
  store i64 -1, ptr %10, align 8
  br label %56

31:                                               ; No predecessors!
  br label %32

32:                                               ; preds = %31
  br label %33

33:                                               ; preds = %32, %4
  %34 = load i32, ptr %5, align 4
  %35 = load ptr, ptr %9, align 8
  %36 = load i8, ptr %8, align 1
  %37 = trunc i8 %36 to i1
  %38 = call i64 @H5I_register(i32 noundef %34, ptr noundef %35, i1 noundef zeroext %37)
  store i64 %38, ptr %10, align 8
  %39 = icmp slt i64 %38, 0
  br i1 %39, label %40, label %55

40:                                               ; preds = %33
  br label %41

41:                                               ; preds = %40
  br label %42

42:                                               ; preds = %41
  br label %43

43:                                               ; preds = %42
  %44 = load i64, ptr @H5E_VOL_g, align 8
  %45 = load i64, ptr @H5E_CANTREGISTER_g, align 8
  %46 = call i32 (ptr, ptr, i32, i64, i64, ptr, ...) @H5E_printf_stack(ptr noundef @.str.2, ptr noundef @__func__.H5VL_register, i32 noundef 696, i64 noundef %44, i64 noundef %45, ptr noundef @.str.41)
  br label %47

47:                                               ; preds = %43
  store i8 1, ptr %11, align 1
  %48 = load i8, ptr %11, align 1
  %49 = trunc i8 %48 to i1
  %50 = zext i1 %49 to i8
  store i8 %50, ptr %11, align 1
  br label %51

51:                                               ; preds = %47
  br label %52

52:                                               ; preds = %51
  store i64 -1, ptr %10, align 8
  br label %56

53:                                               ; No predecessors!
  br label %54

54:                                               ; preds = %53
  br label %55

55:                                               ; preds = %54, %33
  br label %56

56:                                               ; preds = %55, %52, %30
  %57 = load i64, ptr %10, align 8
  ret i64 %57
}