; Function Attrs: nounwind uwtable
define range(i64 -1, -9223372036854775808) i64 @H5VL_register(i32 noundef %0, ptr noundef %1, ptr noundef %2, i1 noundef zeroext %3) local_unnamed_addr #0 {
  %5 = tail call fastcc ptr @H5VL__new_vol_obj(i32 noundef %0, ptr noundef %1, ptr noundef %2, i1 noundef zeroext false)
  %6 = icmp eq ptr %5, null
  br i1 %6, label %7, label %11

7:                                                ; preds = %4
  %8 = load i64, ptr @H5E_VOL_g, align 8
  %9 = load i64, ptr @H5E_CANTCREATE_g, align 8
  %10 = tail call i32 (ptr, ptr, i32, i64, i64, ptr, ...) @H5E_printf_stack(ptr noundef nonnull @.str.2, ptr noundef nonnull @__func__.H5VL_register, i32 noundef 692, i64 noundef %8, i64 noundef %9, ptr noundef nonnull @.str.40) #10
  br label %18

11:                                               ; preds = %4
  %12 = tail call i64 @H5I_register(i32 noundef %0, ptr noundef nonnull %5, i1 noundef zeroext %3) #10
  %13 = icmp slt i64 %12, 0
  br i1 %13, label %14, label %18

14:                                               ; preds = %11
  %15 = load i64, ptr @H5E_VOL_g, align 8
  %16 = load i64, ptr @H5E_CANTREGISTER_g, align 8
  %17 = tail call i32 (ptr, ptr, i32, i64, i64, ptr, ...) @H5E_printf_stack(ptr noundef nonnull @.str.2, ptr noundef nonnull @__func__.H5VL_register, i32 noundef 696, i64 noundef %15, i64 noundef %16, ptr noundef nonnull @.str.41) #10
  br label %18

18:                                               ; preds = %11, %14, %7
  %.0 = phi i64 [ -1, %7 ], [ -1, %14 ], [ %12, %11 ]
  ret i64 %.0
}